target datalayout = "e-m:e-p270:32:32-p271:32:32-p272:64:64-i64:64-i128:128-f80:128-n8:16:32:64-S128"
target triple = "x86_64-pc-linux-gnu"

%struct.gmx_sel_mempool_t = type { i64, i64, ptr, ptr, i32, ptr, i32, i64 }
%class.anon.5 = type { i8 }
%class.anon.7 = type { i8 }

@.str.1 = private unnamed_addr constant [127 x i8] c"generated/home/dtcxzyw/WorkSpace/Projects/compilers/llvm-opt-benchmark/bench/gromacs/gromacs/src/gromacs/selection/mempool.cpp\00", align 1
@_ZTISt9bad_alloc = external constant ptr
@_ZTVSt9exception = external unnamed_addr constant { [5 x ptr] }, align 8
@_ZTVSt9bad_alloc = external unnamed_addr constant { [5 x ptr] }, align 8
@.str.10 = private unnamed_addr constant [17 x i8] c"mp->nblocks == 0\00", align 1
@.str.11 = private unnamed_addr constant [61 x i8] c"Cannot reserve memory pool when there is something allocated\00", align 1
@"__PRETTY_FUNCTION__._ZZ24_gmx_sel_mempool_reserveP17gmx_sel_mempool_tmENK3$_0clEv" = private unnamed_addr constant [98 x i8] c"auto _gmx_sel_mempool_reserve(gmx_sel_mempool_t *, size_t)::(anonymous class)::operator()() const\00", align 1
@.str.12 = private unnamed_addr constant [12 x i8] c"!mp->buffer\00", align 1
@.str.13 = private unnamed_addr constant [33 x i8] c"Cannot reserve memory pool twice\00", align 1

; Function Attrs: mustprogress nounwind uwtable
define linkonce_odr void @_ZNSt9exceptionC2Ev(ptr noundef nonnull align 8 dereferenceable(8) %0) unnamed_addr #2 comdat align 2 {
  %2 = alloca ptr, align 8
  store ptr %0, ptr %2, align 8
  %3 = load ptr, ptr %2, align 8
  store ptr getelementptr inbounds inrange(-16, 24) ({ [5 x ptr] }, ptr @_ZTVSt9exception, i32 0, i32 0, i32 2), ptr %3, align 8
  ret void
}

; Function Attrs: mustprogress nounwind uwtable
define linkonce_odr void @_ZNSt9bad_allocC2Ev(ptr noundef nonnull align 8 dereferenceable(8) %0) unnamed_addr #2 comdat align 2 {
  %2 = alloca ptr, align 8
  store ptr %0, ptr %2, align 8
  %3 = load ptr, ptr %2, align 8
  call void @_ZNSt9exceptionC2Ev(ptr noundef nonnull align 8 dereferenceable(8) %3) #10
  store ptr getelementptr inbounds inrange(-16, 24) ({ [5 x ptr] }, ptr @_ZTVSt9bad_alloc, i32 0, i32 0, i32 2), ptr %3, align 8
  ret void
}

; Function Attrs: mustprogress uwtable
define internal void @"_ZZ24_gmx_sel_mempool_reserveP17gmx_sel_mempool_tmENK3$_1clEv"(ptr noundef nonnull align 1 dereferenceable(1) %0) #0 align 2 {
  %2 = alloca ptr, align 8
  store ptr %0, ptr %2, align 8
  call void @_ZN3gmx8internal13assertHandlerEPKcS2_S2_S2_i(ptr noundef @.str.12, ptr noundef @.str.13, ptr noundef @"__PRETTY_FUNCTION__._ZZ24_gmx_sel_mempool_reserveP17gmx_sel_mempool_tmENK3$_0clEv", ptr noundef @.str.1, i32 noundef 197) #11
  unreachable
}

; Function Attrs: mustprogress uwtable
define internal void @"_ZZ24_gmx_sel_mempool_reserveP17gmx_sel_mempool_tmENK3$_0clEv"(ptr noundef nonnull align 1 dereferenceable(1) %0) #0 align 2 {
  %2 = alloca ptr, align 8
  store ptr %0, ptr %2, align 8
  call void @_ZN3gmx8internal13assertHandlerEPKcS2_S2_S2_i(ptr noundef @.str.10, ptr noundef @.str.11, ptr noundef @"__PRETTY_FUNCTION__._ZZ24_gmx_sel_mempool_reserveP17gmx_sel_mempool_tmENK3$_0clEv", ptr noundef @.str.1, i32 noundef 196) #11
  unreachable
}

; Function Attrs: mustprogress uwtable
define void @_Z24_gmx_sel_mempool_reserveP17gmx_sel_mempool_tm(ptr noundef %0, i64 noundef %1) #0 {
  %3 = alloca ptr, align 8
  %4 = alloca i64, align 8
  %5 = alloca %class.anon.5, align 1
  %6 = alloca %class.anon.7, align 1
  store ptr %0, ptr %3, align 8
  store i64 %1, ptr %4, align 8
  %7 = load ptr, ptr %3, align 8
  %8 = getelementptr inbounds %struct.gmx_sel_mempool_t, ptr %7, i32 0, i32 4
  %9 = load i32, ptr %8, align 8
  %10 = icmp eq i32 %9, 0
  br i1 %10, label %11, label %12

11:                                               ; preds = %2
  br label %13

12:                                               ; preds = %2
  call void @"_ZZ24_gmx_sel_mempool_reserveP17gmx_sel_mempool_tmENK3$_0clEv"(ptr noundef nonnull align 1 dereferenceable(1) %5)
  br label %13

13:                                               ; preds = %12, %11
  %14 = load ptr, ptr %3, align 8
  %15 = getelementptr inbounds %struct.gmx_sel_mempool_t, ptr %14, i32 0, i32 2
  %16 = load ptr, ptr %15, align 8
  %17 = icmp ne ptr %16, null
  br i1 %17, label %19, label %18

18:                                               ; preds = %13
  br label %20

19:                                               ; preds = %13
  call void @"_ZZ24_gmx_sel_mempool_reserveP17gmx_sel_mempool_tmENK3$_1clEv"(ptr noundef nonnull align 1 dereferenceable(1) %6)
  br label %20

20:                                               ; preds = %19, %18
  %21 = load i64, ptr %4, align 8
  %22 = icmp eq i64 %21, 0
  br i1 %22, label %23, label %27

23:                                               ; preds = %20
  %24 = load ptr, ptr %3, align 8
  %25 = getelementptr inbounds %struct.gmx_sel_mempool_t, ptr %24, i32 0, i32 7
  %26 = load i64, ptr %25, align 8
  store i64 %26, ptr %4, align 8
  br label %27

27:                                               ; preds = %23, %20
  %28 = load i64, ptr %4, align 8
  %29 = call noalias ptr @malloc(i64 noundef %28) #12
  %30 = load ptr, ptr %3, align 8
  %31 = getelementptr inbounds %struct.gmx_sel_mempool_t, ptr %30, i32 0, i32 2
  store ptr %29, ptr %31, align 8
  %32 = load ptr, ptr %3, align 8
  %33 = getelementptr inbounds %struct.gmx_sel_mempool_t, ptr %32, i32 0, i32 2
  %34 = load ptr, ptr %33, align 8
  %35 = icmp ne ptr %34, null
  br i1 %35, label %38, label %36

36:                                               ; preds = %27
  %37 = call ptr @__cxa_allocate_exception(i64 8) #10
  call void @_ZNSt9bad_allocC2Ev(ptr noundef nonnull align 8 dereferenceable(8) %37) #10
  call void @__cxa_throw(ptr %37, ptr @_ZTISt9bad_alloc, ptr @_ZNSt9bad_allocD1Ev) #11
  unreachable

38:                                               ; preds = %27
  %39 = load i64, ptr %4, align 8
  %40 = load ptr, ptr %3, align 8
  %41 = getelementptr inbounds %struct.gmx_sel_mempool_t, ptr %40, i32 0, i32 1
  store i64 %39, ptr %41, align 8
  %42 = load ptr, ptr %3, align 8
  %43 = getelementptr inbounds %struct.gmx_sel_mempool_t, ptr %42, i32 0, i32 2
  %44 = load ptr, ptr %43, align 8
  %45 = load ptr, ptr %3, align 8
  %46 = getelementptr inbounds %struct.gmx_sel_mempool_t, ptr %45, i32 0, i32 3
  store ptr %44, ptr %46, align 8
  ret void
}