; Function Attrs: mustprogress uwtable
define void @_Z24_gmx_sel_mempool_reserveP17gmx_sel_mempool_tm(ptr nocapture noundef %0, i64 noundef %1) local_unnamed_addr #0 {
  %3 = getelementptr inbounds i8, ptr %0, i64 32
  %4 = load i32, ptr %3, align 8
  %5 = icmp eq i32 %4, 0
  br i1 %5, label %7, label %6

6:                                                ; preds = %2
  tail call void @_ZN3gmx8internal13assertHandlerEPKcS2_S2_S2_i(ptr noundef nonnull @.str.10, ptr noundef nonnull @.str.11, ptr noundef nonnull @"__PRETTY_FUNCTION__._ZZ24_gmx_sel_mempool_reserveP17gmx_sel_mempool_tmENK3$_0clEv", ptr noundef nonnull @.str.1, i32 noundef 196) #14
  unreachable

7:                                                ; preds = %2
  %8 = getelementptr inbounds i8, ptr %0, i64 16
  %9 = load ptr, ptr %8, align 8
  %.not = icmp eq ptr %9, null
  br i1 %.not, label %11, label %10

10:                                               ; preds = %7
  tail call void @_ZN3gmx8internal13assertHandlerEPKcS2_S2_S2_i(ptr noundef nonnull @.str.12, ptr noundef nonnull @.str.13, ptr noundef nonnull @"__PRETTY_FUNCTION__._ZZ24_gmx_sel_mempool_reserveP17gmx_sel_mempool_tmENK3$_0clEv", ptr noundef nonnull @.str.1, i32 noundef 197) #14
  unreachable

11:                                               ; preds = %7
  %12 = icmp eq i64 %1, 0
  br i1 %12, label %13, label %16

13:                                               ; preds = %11
  %14 = getelementptr inbounds i8, ptr %0, i64 56
  %15 = load i64, ptr %14, align 8
  br label %16

16:                                               ; preds = %13, %11
  %.0 = phi i64 [ %15, %13 ], [ %1, %11 ]
  %17 = tail call noalias ptr @malloc(i64 noundef %.0) #15
  store ptr %17, ptr %8, align 8
  %.not11 = icmp eq ptr %17, null
  br i1 %.not11, label %18, label %20

18:                                               ; preds = %16
  %19 = tail call ptr @__cxa_allocate_exception(i64 8) #13
  store ptr getelementptr inbounds inrange(-16, 24) ({ [5 x ptr] }, ptr @_ZTVSt9bad_alloc, i64 0, i32 0, i64 2), ptr %19, align 8
  tail call void @__cxa_throw(ptr nonnull %19, ptr nonnull @_ZTISt9bad_alloc, ptr nonnull @_ZNSt9bad_allocD1Ev) #14
  unreachable

20:                                               ; preds = %16
  %21 = getelementptr inbounds i8, ptr %0, i64 8
  store i64 %.0, ptr %21, align 8
  %22 = getelementptr inbounds i8, ptr %0, i64 24
  store ptr %17, ptr %22, align 8
  ret void
}